target datalayout = "e-m:e-p270:32:32-p271:32:32-p272:64:64-i64:64-i128:128-f80:128-n8:16:32:64-S128"
target triple = "x86_64-pc-linux-gnu"

%struct.SDL_WindowData = type { ptr, ptr, ptr, ptr, ptr, ptr, ptr, %union.anon, i32, i32, i32, i32, ptr, ptr, ptr, ptr, ptr, ptr, ptr, ptr, ptr, ptr, ptr, ptr, ptr, ptr, %struct.SDL_AtomicInt, ptr, i32, ptr, double, ptr, i32, i32, i32, i32, %struct.anon.3, %struct.anon.4, %struct.anon.5, %struct.anon.6, %struct.anon.7, %struct.anon.8, %struct.anon.9, i32, i32, i32, i64, i32, i32, i8, i8, i8, i8, i8, i8, i8, i8, i8, i8, i8, i8, i8, i8, i32, %struct.wl_list }
%union.anon = type { %struct.anon }
%struct.anon = type { ptr, %union.anon.0, i8 }
%union.anon.0 = type { %struct.anon.2 }
%struct.anon.2 = type { ptr, ptr }
%struct.SDL_AtomicInt = type { i32 }
%struct.anon.3 = type { double, double }
%struct.anon.4 = type { i32, i32, i32, i32 }
%struct.anon.5 = type { i32, i32, i32, i32 }
%struct.anon.6 = type { i32, i32 }
%struct.anon.7 = type { i32, i32 }
%struct.anon.8 = type { i32, i32 }
%struct.anon.9 = type { i32, i32, i8 }
%struct.wl_list = type { ptr, ptr }
%struct.SDL_DisplayMode = type { i32, i32, i32, i32, float, float, i32, i32, ptr }
%struct.SDL_HDROutputProperties = type { float, float }
%struct.SDL_DisplayData = type { ptr, ptr, ptr, ptr, ptr, double, i32, i32, i32, i32, i32, i32, i32, i32, i32, i32, i32, i32, i8, i8, i8, %struct.SDL_HDROutputProperties, i32, %struct.SDL_VideoDisplay, i32, ptr }
%struct.SDL_VideoDisplay = type { i32, ptr, i32, i32, ptr, %struct.SDL_DisplayMode, ptr, i32, i32, float, %struct.SDL_HDROutputProperties, i8, ptr, ptr, i32, ptr }

@WAYLAND_wl_proxy_get_version = external global ptr, align 8
@WAYLAND_wl_proxy_get_user_data = external global ptr, align 8

; Function Attrs: inlinehint nounwind uwtable
define internal i32 @wl_surface_get_version(ptr noundef %0) #4 {
  %2 = alloca ptr, align 8
  store ptr %0, ptr %2, align 8
  %3 = load ptr, ptr @WAYLAND_wl_proxy_get_version, align 8
  %4 = load ptr, ptr %2, align 8
  %5 = call i32 %3(ptr noundef %4)
  ret i32 %5
}

; Function Attrs: nounwind uwtable
define internal void @Wayland_MaybeUpdateScaleFactor(ptr noundef %0) #0 {
  %2 = alloca ptr, align 8
  %3 = alloca double, align 8
  %4 = alloca i32, align 4
  %5 = alloca i32, align 4
  %6 = alloca ptr, align 8
  store ptr %0, ptr %2, align 8
  call void @llvm.lifetime.start.p0(i64 8, ptr %3) #10
  call void @llvm.lifetime.start.p0(i64 4, ptr %4) #10
  %7 = load ptr, ptr %2, align 8
  %8 = getelementptr inbounds nuw %struct.SDL_WindowData, ptr %7, i32 0, i32 18
  %9 = load ptr, ptr %8, align 8
  %10 = icmp ne ptr %9, null
  br i1 %10, label %17, label %11

11:                                               ; preds = %1
  %12 = load ptr, ptr %2, align 8
  %13 = getelementptr inbounds nuw %struct.SDL_WindowData, ptr %12, i32 0, i32 2
  %14 = load ptr, ptr %13, align 8
  %15 = call i32 @wl_surface_get_version(ptr noundef %14)
  %16 = icmp uge i32 %15, 6
  br i1 %16, label %17, label %18

17:                                               ; preds = %11, %1
  store i32 1, ptr %5, align 4
  br label %62

18:                                               ; preds = %11
  %19 = load ptr, ptr %2, align 8
  %20 = getelementptr inbounds nuw %struct.SDL_WindowData, ptr %19, i32 0, i32 28
  %21 = load i32, ptr %20, align 8
  %22 = icmp ne i32 %21, 0
  br i1 %22, label %23, label %55

23:                                               ; preds = %18
  store double 0.000000e+00, ptr %3, align 8
  store i32 0, ptr %4, align 4
  br label %24

24:                                               ; preds = %51, %23
  %25 = load i32, ptr %4, align 4
  %26 = load ptr, ptr %2, align 8
  %27 = getelementptr inbounds nuw %struct.SDL_WindowData, ptr %26, i32 0, i32 28
  %28 = load i32, ptr %27, align 8
  %29 = icmp slt i32 %25, %28
  br i1 %29, label %30, label %54

30:                                               ; preds = %24
  call void @llvm.lifetime.start.p0(i64 8, ptr %6) #10
  %31 = load ptr, ptr %2, align 8
  %32 = getelementptr inbounds nuw %struct.SDL_WindowData, ptr %31, i32 0, i32 27
  %33 = load ptr, ptr %32, align 8
  %34 = load i32, ptr %4, align 4
  %35 = sext i32 %34 to i64
  %36 = getelementptr inbounds ptr, ptr %33, i64 %35
  %37 = load ptr, ptr %36, align 8
  store ptr %37, ptr %6, align 8
  %38 = load double, ptr %3, align 8
  %39 = load ptr, ptr %6, align 8
  %40 = getelementptr inbounds nuw %struct.SDL_DisplayData, ptr %39, i32 0, i32 5
  %41 = load double, ptr %40, align 8
  %42 = fcmp ogt double %38, %41
  br i1 %42, label %43, label %45

43:                                               ; preds = %30
  %44 = load double, ptr %3, align 8
  br label %49

45:                                               ; preds = %30
  %46 = load ptr, ptr %6, align 8
  %47 = getelementptr inbounds nuw %struct.SDL_DisplayData, ptr %46, i32 0, i32 5
  %48 = load double, ptr %47, align 8
  br label %49

49:                                               ; preds = %45, %43
  %50 = phi double [ %44, %43 ], [ %48, %45 ]
  store double %50, ptr %3, align 8
  call void @llvm.lifetime.end.p0(i64 8, ptr %6) #10
  br label %51

51:                                               ; preds = %49
  %52 = load i32, ptr %4, align 4
  %53 = add nsw i32 %52, 1
  store i32 %53, ptr %4, align 4
  br label %24, !llvm.loop !8

54:                                               ; preds = %24
  br label %59

55:                                               ; preds = %18
  %56 = load ptr, ptr %2, align 8
  %57 = getelementptr inbounds nuw %struct.SDL_WindowData, ptr %56, i32 0, i32 30
  %58 = load double, ptr %57, align 8
  store double %58, ptr %3, align 8
  br label %59

59:                                               ; preds = %55, %54
  %60 = load ptr, ptr %2, align 8
  %61 = load double, ptr %3, align 8
  call void @Wayland_HandlePreferredScaleChanged(ptr noundef %60, double noundef %61)
  store i32 0, ptr %5, align 4
  br label %62

62:                                               ; preds = %59, %17
  call void @llvm.lifetime.end.p0(i64 4, ptr %4) #10
  call void @llvm.lifetime.end.p0(i64 8, ptr %3) #10
  %63 = load i32, ptr %5, align 4
  switch i32 %63, label %65 [
    i32 0, label %64
    i32 1, label %64
  ]

64:                                               ; preds = %62, %62
  ret void

65:                                               ; preds = %62
  unreachable
}

; Function Attrs: inlinehint nounwind uwtable
define internal ptr @wl_output_get_user_data(ptr noundef %0) #4 {
  %2 = alloca ptr, align 8
  store ptr %0, ptr %2, align 8
  %3 = load ptr, ptr @WAYLAND_wl_proxy_get_user_data, align 8
  %4 = load ptr, ptr %2, align 8
  %5 = call ptr %3(ptr noundef %4)
  ret ptr %5
}

; Function Attrs: nounwind uwtable
define internal void @handle_surface_enter(ptr noundef %0, ptr noundef %1, ptr noundef %2) #0 {
  %4 = alloca ptr, align 8
  %5 = alloca ptr, align 8
  %6 = alloca ptr, align 8
  %7 = alloca ptr, align 8
  %8 = alloca ptr, align 8
  %9 = alloca ptr, align 8
  %10 = alloca i32, align 4
  store ptr %0, ptr %4, align 8
  store ptr %1, ptr %5, align 8
  store ptr %2, ptr %6, align 8
  call void @llvm.lifetime.start.p0(i64 8, ptr %7) #10
  %11 = load ptr, ptr %4, align 8
  store ptr %11, ptr %7, align 8
  call void @llvm.lifetime.start.p0(i64 8, ptr %8) #10
  %12 = load ptr, ptr %6, align 8
  %13 = call ptr @wl_output_get_user_data(ptr noundef %12)
  store ptr %13, ptr %8, align 8
  call void @llvm.lifetime.start.p0(i64 8, ptr %9) #10
  %14 = load ptr, ptr %6, align 8
  %15 = call zeroext i1 @SDL_WAYLAND_own_output(ptr noundef %14)
  br i1 %15, label %16, label %19

16:                                               ; preds = %3
  %17 = load ptr, ptr %5, align 8
  %18 = call zeroext i1 @SDL_WAYLAND_own_surface(ptr noundef %17)
  br i1 %18, label %20, label %19

19:                                               ; preds = %16, %3
  store i32 1, ptr %10, align 4
  br label %63

20:                                               ; preds = %16
  %21 = load ptr, ptr %7, align 8
  %22 = getelementptr inbounds nuw %struct.SDL_WindowData, ptr %21, i32 0, i32 27
  %23 = load ptr, ptr %22, align 8
  %24 = load ptr, ptr %7, align 8
  %25 = getelementptr inbounds nuw %struct.SDL_WindowData, ptr %24, i32 0, i32 28
  %26 = load i32, ptr %25, align 8
  %27 = add nsw i32 %26, 1
  %28 = sext i32 %27 to i64
  %29 = mul i64 8, %28
  %30 = call ptr @SDL_realloc_REAL(ptr noundef %23, i64 noundef %29) #12
  store ptr %30, ptr %9, align 8
  %31 = load ptr, ptr %9, align 8
  %32 = icmp ne ptr %31, null
  br i1 %32, label %34, label %33

33:                                               ; preds = %20
  store i32 1, ptr %10, align 4
  br label %63

34:                                               ; preds = %20
  %35 = load ptr, ptr %9, align 8
  %36 = load ptr, ptr %7, align 8
  %37 = getelementptr inbounds nuw %struct.SDL_WindowData, ptr %36, i32 0, i32 27
  store ptr %35, ptr %37, align 8
  %38 = load ptr, ptr %8, align 8
  %39 = load ptr, ptr %7, align 8
  %40 = getelementptr inbounds nuw %struct.SDL_WindowData, ptr %39, i32 0, i32 27
  %41 = load ptr, ptr %40, align 8
  %42 = load ptr, ptr %7, align 8
  %43 = getelementptr inbounds nuw %struct.SDL_WindowData, ptr %42, i32 0, i32 28
  %44 = load i32, ptr %43, align 8
  %45 = add nsw i32 %44, 1
  store i32 %45, ptr %43, align 8
  %46 = sext i32 %44 to i64
  %47 = getelementptr inbounds ptr, ptr %41, i64 %46
  store ptr %38, ptr %47, align 8
  %48 = load ptr, ptr %7, align 8
  %49 = getelementptr inbounds nuw %struct.SDL_WindowData, ptr %48, i32 0, i32 54
  %50 = load i8, ptr %49, align 1, !range !5, !noundef !6
  %51 = trunc i8 %50 to i1
  br i1 %51, label %52, label %57

52:                                               ; preds = %34
  %53 = load ptr, ptr %7, align 8
  %54 = getelementptr inbounds nuw %struct.SDL_WindowData, ptr %53, i32 0, i32 28
  %55 = load i32, ptr %54, align 8
  %56 = icmp eq i32 %55, 1
  br i1 %56, label %57, label %62

57:                                               ; preds = %52, %34
  %58 = load ptr, ptr %7, align 8
  %59 = getelementptr inbounds nuw %struct.SDL_WindowData, ptr %58, i32 0, i32 0
  %60 = load ptr, ptr %59, align 8
  call void @Wayland_move_window(ptr noundef %60)
  %61 = load ptr, ptr %7, align 8
  call void @Wayland_MaybeUpdateScaleFactor(ptr noundef %61)
  br label %62

62:                                               ; preds = %57, %52
  store i32 0, ptr %10, align 4
  br label %63

63:                                               ; preds = %62, %33, %19
  call void @llvm.lifetime.end.p0(i64 8, ptr %9) #10
  call void @llvm.lifetime.end.p0(i64 8, ptr %8) #10
  call void @llvm.lifetime.end.p0(i64 8, ptr %7) #10
  %64 = load i32, ptr %10, align 4
  switch i32 %64, label %66 [
    i32 0, label %65
    i32 1, label %65
  ]

65:                                               ; preds = %63, %63
  ret void

66:                                               ; preds = %63
  unreachable
}