; Function Attrs: nounwind uwtable
define internal void @handle_surface_enter(ptr noundef captures(none) %0, ptr noundef %1, ptr noundef %2) #0 {
  %4 = load ptr, ptr @WAYLAND_wl_proxy_get_user_data, align 8
  %5 = tail call ptr %4(ptr noundef %2) #15
  %6 = tail call zeroext i1 @SDL_WAYLAND_own_output(ptr noundef %2) #15
  br i1 %6, label %7, label %Wayland_MaybeUpdateScaleFactor.exit

7:                                                ; preds = %3
  %8 = tail call zeroext i1 @SDL_WAYLAND_own_surface(ptr noundef %1) #15
  br i1 %8, label %9, label %Wayland_MaybeUpdateScaleFactor.exit

9:                                                ; preds = %7
  %10 = getelementptr inbounds nuw i8, ptr %0, i64 224
  %11 = load ptr, ptr %10, align 8
  %12 = getelementptr inbounds nuw i8, ptr %0, i64 232
  %13 = load i32, ptr %12, align 8
  %14 = add nsw i32 %13, 1
  %15 = sext i32 %14 to i64
  %16 = shl nsw i64 %15, 3
  %17 = tail call ptr @SDL_realloc_REAL(ptr noundef %11, i64 noundef %16) #17
  %.not = icmp eq ptr %17, null
  br i1 %.not, label %Wayland_MaybeUpdateScaleFactor.exit, label %18

18:                                               ; preds = %9
  store ptr %17, ptr %10, align 8
  %19 = load i32, ptr %12, align 8
  %20 = add nsw i32 %19, 1
  store i32 %20, ptr %12, align 8
  %21 = sext i32 %19 to i64
  %22 = getelementptr inbounds ptr, ptr %17, i64 %21
  store ptr %5, ptr %22, align 8
  %23 = getelementptr inbounds nuw i8, ptr %0, i64 397
  %24 = load i8, ptr %23, align 1, !range !5, !noundef !6
  %25 = trunc nuw i8 %24 to i1
  br i1 %25, label %26, label %29

26:                                               ; preds = %18
  %27 = load i32, ptr %12, align 8
  %28 = icmp eq i32 %27, 1
  br i1 %28, label %29, label %Wayland_MaybeUpdateScaleFactor.exit

29:                                               ; preds = %26, %18
  %30 = load ptr, ptr %0, align 8
  tail call fastcc void @Wayland_move_window(ptr noundef %30)
  %31 = getelementptr inbounds nuw i8, ptr %0, i64 152
  %32 = load ptr, ptr %31, align 8
  %.not.i = icmp eq ptr %32, null
  br i1 %.not.i, label %33, label %Wayland_MaybeUpdateScaleFactor.exit

33:                                               ; preds = %29
  %34 = getelementptr inbounds nuw i8, ptr %0, i64 16
  %35 = load ptr, ptr %34, align 8
  %36 = load ptr, ptr @WAYLAND_wl_proxy_get_version, align 8
  %37 = tail call i32 %36(ptr noundef %35) #15
  %38 = icmp ugt i32 %37, 5
  br i1 %38, label %Wayland_MaybeUpdateScaleFactor.exit, label %39

39:                                               ; preds = %33
  %40 = load i32, ptr %12, align 8
  %.not16.i = icmp eq i32 %40, 0
  br i1 %.not16.i, label %49, label %.preheader.i

.preheader.i:                                     ; preds = %39
  %41 = icmp sgt i32 %40, 0
  br i1 %41, label %.lr.ph.i, label %.loopexit.i

.lr.ph.i:                                         ; preds = %.preheader.i
  %42 = load ptr, ptr %10, align 8
  %wide.trip.count.i = zext nneg i32 %40 to i64
  br label %43

43:                                               ; preds = %43, %.lr.ph.i
  %indvars.iv.i = phi i64 [ 0, %.lr.ph.i ], [ %indvars.iv.next.i, %43 ]
  %.018.i = phi double [ 0.000000e+00, %.lr.ph.i ], [ %.0..i, %43 ]
  %44 = getelementptr inbounds nuw ptr, ptr %42, i64 %indvars.iv.i
  %45 = load ptr, ptr %44, align 8
  %46 = getelementptr inbounds nuw i8, ptr %45, i64 40
  %47 = load double, ptr %46, align 8
  %48 = fcmp ogt double %.018.i, %47
  %.0..i = select i1 %48, double %.018.i, double %47
  %indvars.iv.next.i = add nuw nsw i64 %indvars.iv.i, 1
  %exitcond.not.i = icmp eq i64 %indvars.iv.next.i, %wide.trip.count.i
  br i1 %exitcond.not.i, label %.loopexit.i, label %43, !llvm.loop !7

49:                                               ; preds = %39
  %50 = getelementptr inbounds nuw i8, ptr %0, i64 248
  %51 = load double, ptr %50, align 8
  br label %.loopexit.i

.loopexit.i:                                      ; preds = %43, %49, %.preheader.i
  %.1.i = phi double [ %51, %49 ], [ 0.000000e+00, %.preheader.i ], [ %.0..i, %43 ]
  tail call fastcc void @Wayland_HandlePreferredScaleChanged(ptr noundef nonnull %0, double noundef %.1.i)
  br label %Wayland_MaybeUpdateScaleFactor.exit

Wayland_MaybeUpdateScaleFactor.exit:              ; preds = %.loopexit.i, %33, %29, %26, %9, %3, %7
  ret void
}